target datalayout = "e-m:e-p270:32:32-p271:32:32-p272:64:64-i64:64-i128:128-f80:128-n8:16:32:64-S128"
target triple = "x86_64-pc-linux-gnu"

%"class.std::__shared_count" = type { ptr }
%"class.std::__shared_ptr.27" = type { ptr, %"class.std::__shared_count" }
%"class.std::_Sp_counted_ptr" = type { %"class.std::_Sp_counted_base", ptr }
%"class.std::_Sp_counted_base" = type { ptr, i32, i32 }

; Function Attrs: mustprogress nounwind uwtable
define linkonce_odr dso_local void @_ZNSt16_Sp_counted_baseILN9__gnu_cxx12_Lock_policyE2EEC2Ev(ptr noundef nonnull align 8 dereferenceable(16) %0) unnamed_addr #6 comdat align 2 {
  %2 = alloca ptr, align 8
  store ptr %0, ptr %2, align 8, !tbaa !91
  %3 = load ptr, ptr %2, align 8
  store ptr getelementptr inbounds inrange(-16, 40) ({ [7 x ptr] }, ptr @_ZTVSt16_Sp_counted_baseILN9__gnu_cxx12_Lock_policyE2EE, i32 0, i32 0, i32 2), ptr %3, align 8, !tbaa !40
  %4 = getelementptr inbounds nuw %"class.std::_Sp_counted_base", ptr %3, i32 0, i32 1
  store i32 1, ptr %4, align 8, !tbaa !92
  %5 = getelementptr inbounds nuw %"class.std::_Sp_counted_base", ptr %3, i32 0, i32 2
  store i32 1, ptr %5, align 4, !tbaa !93
  ret void
}

; Function Attrs: mustprogress nounwind uwtable
define internal void @_ZNSt15_Sp_counted_ptrIPN7testing8internal26ParameterizedTestSuiteInfoIN12_GLOBAL__N_125GaussianDistributionTestsEE8TestInfoELN9__gnu_cxx12_Lock_policyE2EEC2ES7_(ptr noundef nonnull align 8 dereferenceable(24) %0, ptr noundef %1) unnamed_addr #6 align 2 {
  %3 = alloca ptr, align 8
  %4 = alloca ptr, align 8
  store ptr %0, ptr %3, align 8, !tbaa !86
  store ptr %1, ptr %4, align 8, !tbaa !59
  %5 = load ptr, ptr %3, align 8
  call void @_ZNSt16_Sp_counted_baseILN9__gnu_cxx12_Lock_policyE2EEC2Ev(ptr noundef nonnull align 8 dereferenceable(16) %5) #3
  store ptr getelementptr inbounds inrange(-16, 40) ({ [7 x ptr] }, ptr @_ZTVSt15_Sp_counted_ptrIPN7testing8internal26ParameterizedTestSuiteInfoIN12_GLOBAL__N_125GaussianDistributionTestsEE8TestInfoELN9__gnu_cxx12_Lock_policyE2EE, i32 0, i32 0, i32 2), ptr %5, align 8, !tbaa !40
  %6 = getelementptr inbounds nuw %"class.std::_Sp_counted_ptr", ptr %5, i32 0, i32 1
  %7 = load ptr, ptr %4, align 8, !tbaa !59
  store ptr %7, ptr %6, align 8, !tbaa !88
  ret void
}

; Function Attrs: mustprogress uwtable
define internal void @_ZNSt14__shared_countILN9__gnu_cxx12_Lock_policyE2EEC2IPN7testing8internal26ParameterizedTestSuiteInfoIN12_GLOBAL__N_125GaussianDistributionTestsEE8TestInfoEEET_(ptr noundef nonnull align 8 dereferenceable(8) %0, ptr noundef %1) unnamed_addr #4 align 2 personality ptr @__gxx_personality_v0 {
  %3 = alloca ptr, align 8
  %4 = alloca ptr, align 8
  %5 = alloca ptr, align 8
  %6 = alloca i32, align 4
  store ptr %0, ptr %3, align 8, !tbaa !83
  store ptr %1, ptr %4, align 8, !tbaa !59
  %7 = load ptr, ptr %3, align 8
  %8 = getelementptr inbounds nuw %"class.std::__shared_count", ptr %7, i32 0, i32 0
  store ptr null, ptr %8, align 8, !tbaa !85
  %9 = invoke noalias noundef nonnull ptr @_Znwm(i64 noundef 24) #31
          to label %10 unwind label %13

10:                                               ; preds = %2
  %11 = load ptr, ptr %4, align 8, !tbaa !59
  call void @_ZNSt15_Sp_counted_ptrIPN7testing8internal26ParameterizedTestSuiteInfoIN12_GLOBAL__N_125GaussianDistributionTestsEE8TestInfoELN9__gnu_cxx12_Lock_policyE2EEC2ES7_(ptr noundef nonnull align 8 dereferenceable(24) %9, ptr noundef %11) #3
  %12 = getelementptr inbounds nuw %"class.std::__shared_count", ptr %7, i32 0, i32 0
  store ptr %9, ptr %12, align 8, !tbaa !85
  br label %29

13:                                               ; preds = %2
  %14 = landingpad { ptr, i32 }
          catch ptr null
  %15 = extractvalue { ptr, i32 } %14, 0
  store ptr %15, ptr %5, align 8
  %16 = extractvalue { ptr, i32 } %14, 1
  store i32 %16, ptr %6, align 4
  br label %17

17:                                               ; preds = %13
  %18 = load ptr, ptr %5, align 8
  %19 = call ptr @__cxa_begin_catch(ptr %18) #3
  %20 = load ptr, ptr %4, align 8, !tbaa !59
  %21 = icmp eq ptr %20, null
  br i1 %21, label %23, label %22

22:                                               ; preds = %17
  call void @_ZN7testing8internal26ParameterizedTestSuiteInfoIN12_GLOBAL__N_125GaussianDistributionTestsEE8TestInfoD2Ev(ptr noundef nonnull align 8 dereferenceable(80) %20) #3
  call void @_ZdlPvm(ptr noundef %20, i64 noundef 80) #32
  br label %23

23:                                               ; preds = %22, %17
  invoke void @__cxa_rethrow() #33
          to label %38 unwind label %24

24:                                               ; preds = %23
  %25 = landingpad { ptr, i32 }
          cleanup
  %26 = extractvalue { ptr, i32 } %25, 0
  store ptr %26, ptr %5, align 8
  %27 = extractvalue { ptr, i32 } %25, 1
  store i32 %27, ptr %6, align 4
  invoke void @__cxa_end_catch()
          to label %28 unwind label %35

28:                                               ; preds = %24
  br label %30

29:                                               ; preds = %10
  ret void

30:                                               ; preds = %28
  %31 = load ptr, ptr %5, align 8
  %32 = load i32, ptr %6, align 4
  %33 = insertvalue { ptr, i32 } poison, ptr %31, 0
  %34 = insertvalue { ptr, i32 } %33, i32 %32, 1
  resume { ptr, i32 } %34

35:                                               ; preds = %24
  %36 = landingpad { ptr, i32 }
          catch ptr null
  %37 = extractvalue { ptr, i32 } %36, 0
  call void @__clang_call_terminate(ptr %37) #34
  unreachable

38:                                               ; preds = %23
  unreachable
}

; Function Attrs: mustprogress nounwind uwtable
define internal void @_ZNSt12__shared_ptrIN7testing8internal26ParameterizedTestSuiteInfoIN12_GLOBAL__N_125GaussianDistributionTestsEE8TestInfoELN9__gnu_cxx12_Lock_policyE2EE31_M_enable_shared_from_this_withIS6_S6_EENSt9enable_ifIXntsr15__has_esft_baseIT0_EE5valueEvE4typeEPT_(ptr noundef nonnull align 8 dereferenceable(16) %0, ptr noundef %1) #6 align 2 {
  %3 = alloca ptr, align 8
  %4 = alloca ptr, align 8
  store ptr %0, ptr %3, align 8, !tbaa !77
  store ptr %1, ptr %4, align 8, !tbaa !59
  ret void
}

; Function Attrs: mustprogress uwtable
define internal void @_ZNSt14__shared_countILN9__gnu_cxx12_Lock_policyE2EEC2IPN7testing8internal26ParameterizedTestSuiteInfoIN12_GLOBAL__N_125GaussianDistributionTestsEE8TestInfoEEET_St17integral_constantIbLb0EE(ptr noundef nonnull align 8 dereferenceable(8) %0, ptr noundef %1) unnamed_addr #4 align 2 {
  %3 = alloca ptr, align 8
  %4 = alloca ptr, align 8
  store ptr %0, ptr %3, align 8, !tbaa !83
  store ptr %1, ptr %4, align 8, !tbaa !59
  %5 = load ptr, ptr %3, align 8
  %6 = load ptr, ptr %4, align 8, !tbaa !59
  call void @_ZNSt14__shared_countILN9__gnu_cxx12_Lock_policyE2EEC2IPN7testing8internal26ParameterizedTestSuiteInfoIN12_GLOBAL__N_125GaussianDistributionTestsEE8TestInfoEEET_(ptr noundef nonnull align 8 dereferenceable(8) %5, ptr noundef %6)
  ret void
}

; Function Attrs: mustprogress uwtable
define internal void @_ZNSt12__shared_ptrIN7testing8internal26ParameterizedTestSuiteInfoIN12_GLOBAL__N_125GaussianDistributionTestsEE8TestInfoELN9__gnu_cxx12_Lock_policyE2EEC2IS6_vEEPT_(ptr noundef nonnull align 8 dereferenceable(16) %0, ptr noundef %1) unnamed_addr #4 align 2 {
  %3 = alloca ptr, align 8
  %4 = alloca ptr, align 8
  store ptr %0, ptr %3, align 8, !tbaa !77
  store ptr %1, ptr %4, align 8, !tbaa !59
  %5 = load ptr, ptr %3, align 8
  %6 = getelementptr inbounds nuw %"class.std::__shared_ptr.27", ptr %5, i32 0, i32 0
  %7 = load ptr, ptr %4, align 8, !tbaa !59
  store ptr %7, ptr %6, align 8, !tbaa !79
  %8 = getelementptr inbounds nuw %"class.std::__shared_ptr.27", ptr %5, i32 0, i32 1
  %9 = load ptr, ptr %4, align 8, !tbaa !59
  call void @_ZNSt14__shared_countILN9__gnu_cxx12_Lock_policyE2EEC2IPN7testing8internal26ParameterizedTestSuiteInfoIN12_GLOBAL__N_125GaussianDistributionTestsEE8TestInfoEEET_St17integral_constantIbLb0EE(ptr noundef nonnull align 8 dereferenceable(8) %8, ptr noundef %9)
  %10 = load ptr, ptr %4, align 8, !tbaa !59
  call void @_ZNSt12__shared_ptrIN7testing8internal26ParameterizedTestSuiteInfoIN12_GLOBAL__N_125GaussianDistributionTestsEE8TestInfoELN9__gnu_cxx12_Lock_policyE2EE31_M_enable_shared_from_this_withIS6_S6_EENSt9enable_ifIXntsr15__has_esft_baseIT0_EE5valueEvE4typeEPT_(ptr noundef nonnull align 8 dereferenceable(16) %5, ptr noundef %10) #3
  ret void
}

; Function Attrs: mustprogress uwtable
define internal void @_ZNSt10shared_ptrIN7testing8internal26ParameterizedTestSuiteInfoIN12_GLOBAL__N_125GaussianDistributionTestsEE8TestInfoEEC2IS6_vEEPT_(ptr noundef nonnull align 8 dereferenceable(16) %0, ptr noundef %1) unnamed_addr #4 align 2 {
  %3 = alloca ptr, align 8
  %4 = alloca ptr, align 8
  store ptr %0, ptr %3, align 8, !tbaa !73
  store ptr %1, ptr %4, align 8, !tbaa !59
  %5 = load ptr, ptr %3, align 8
  %6 = load ptr, ptr %4, align 8, !tbaa !59
  call void @_ZNSt12__shared_ptrIN7testing8internal26ParameterizedTestSuiteInfoIN12_GLOBAL__N_125GaussianDistributionTestsEE8TestInfoELN9__gnu_cxx12_Lock_policyE2EEC2IS6_vEEPT_(ptr noundef nonnull align 8 dereferenceable(16) %5, ptr noundef %6)
  ret void
}

; Function Attrs: mustprogress uwtable
define internal void @_ZNSt15__new_allocatorISt10shared_ptrIN7testing8internal26ParameterizedTestSuiteInfoIN12_GLOBAL__N_125GaussianDistributionTestsEE8TestInfoEEE9constructIS8_JPS7_EEEvPT_DpOT0_(ptr noundef nonnull align 1 dereferenceable(1) %0, ptr noundef %1, ptr noundef nonnull align 8 dereferenceable(8) %2) #4 align 2 {
  %4 = alloca ptr, align 8
  %5 = alloca ptr, align 8
  %6 = alloca ptr, align 8
  store ptr %0, ptr %4, align 8, !tbaa !75
  store ptr %1, ptr %5, align 8, !tbaa !73
  store ptr %2, ptr %6, align 8, !tbaa !65
  %7 = load ptr, ptr %5, align 8, !tbaa !73
  %8 = load ptr, ptr %6, align 8, !tbaa !65
  %9 = load ptr, ptr %8, align 8, !tbaa !59
  call void @_ZNSt10shared_ptrIN7testing8internal26ParameterizedTestSuiteInfoIN12_GLOBAL__N_125GaussianDistributionTestsEE8TestInfoEEC2IS6_vEEPT_(ptr noundef nonnull align 8 dereferenceable(16) %7, ptr noundef %9)
  ret void
}

; Function Attrs: mustprogress uwtable
define internal void @_ZNSt16allocator_traitsISaISt10shared_ptrIN7testing8internal26ParameterizedTestSuiteInfoIN12_GLOBAL__N_125GaussianDistributionTestsEE8TestInfoEEEE9constructIS8_JPS7_EEEvRS9_PT_DpOT0_(ptr noundef nonnull align 1 dereferenceable(1) %0, ptr noundef %1, ptr noundef nonnull align 8 dereferenceable(8) %2) #4 align 2 {
  %4 = alloca ptr, align 8
  %5 = alloca ptr, align 8
  %6 = alloca ptr, align 8
  store ptr %0, ptr %4, align 8, !tbaa !71
  store ptr %1, ptr %5, align 8, !tbaa !73
  store ptr %2, ptr %6, align 8, !tbaa !65
  %7 = load ptr, ptr %4, align 8, !tbaa !71
  %8 = load ptr, ptr %5, align 8, !tbaa !73
  %9 = load ptr, ptr %6, align 8, !tbaa !65
  call void @_ZNSt15__new_allocatorISt10shared_ptrIN7testing8internal26ParameterizedTestSuiteInfoIN12_GLOBAL__N_125GaussianDistributionTestsEE8TestInfoEEE9constructIS8_JPS7_EEEvPT_DpOT0_(ptr noundef nonnull align 1 dereferenceable(1) %7, ptr noundef %8, ptr noundef nonnull align 8 dereferenceable(8) %9)
  ret void
}